Certificate:
    Data:
        Version: 3 (0x2)
        Serial Number: 1 (0x1)
    Signature Algorithm: sha1WithRSAEncryption
        Issuer: C=CN, ST=ShangHai, L=ShangHaiCity, O=ZSB, OU=ZSB, CN=172.18.22.68/emailAddress=1355025575@qq.com
        Validity
            Not Before: Dec  4 03:20:07 2019 GMT
            Not After : Dec  3 03:20:07 2020 GMT
        Subject: C=CN, ST=ShangHai, O=ZSB, OU=ZSB, CN=172.18.22.68/emailAddress=1355025575@qq.com
        Subject Public Key Info:
            Public Key Algorithm: rsaEncryption
                Public-Key: (4096 bit)
                Modulus:
                    00:a0:c7:42:a5:21:4f:81:1a:2a:8d:46:92:ab:36:
                    ba:b9:e0:fa:ce:3d:fc:e0:8b:85:98:46:e2:ab:d8:
                    c9:c7:00:5b:08:16:43:26:0e:c3:f3:74:2d:ca:24:
                    43:c5:a0:f5:a8:2c:b2:02:7a:a0:79:95:11:21:8d:
                    f2:e0:d0:31:04:19:ab:da:b8:b5:80:5b:3c:56:5a:
                    6f:7e:96:0d:60:dd:98:67:92:b9:c5:2e:3d:10:cd:
                    c8:d4:bf:70:4f:a6:e4:20:31:ec:26:1c:60:de:a6:
                    01:82:58:cc:cd:19:f2:77:78:36:47:b3:9e:c7:a7:
                    5f:ad:2d:c9:94:d7:39:5c:fb:34:2e:ce:cf:05:f7:
                    40:2c:75:eb:e3:3a:38:d9:09:d5:86:d2:49:ff:05:
                    c8:32:4f:1d:eb:a5:9d:f8:2b:72:26:90:cd:e0:5a:
                    5d:7d:a1:67:f9:ce:d5:f7:50:6c:a7:03:5b:66:39:
                    7a:84:10:9e:7f:d6:fe:18:de:4c:fa:3a:0e:87:61:
                    27:7d:d7:69:8e:df:a3:90:d9:98:d9:51:1d:30:81:
                    60:7e:f4:8a:ec:0a:30:64:ef:98:7f:a6:df:8c:c8:
                    70:2b:7a:47:01:d7:97:6a:df:88:2a:52:3f:a4:aa:
                    c5:05:ab:07:be:41:23:ad:0f:af:31:5e:0b:d7:55:
                    d2:d7:41:d8:d6:2e:2f:30:1d:4f:b5:58:ec:10:72:
                    eb:bd:38:46:6c:b2:3c:dd:40:47:12:55:fe:76:4d:
                    47:5e:20:1f:22:8a:f3:7b:17:74:eb:33:ba:79:71:
                    71:ef:5b:86:38:20:12:3d:e2:23:31:cb:bf:bd:c3:
                    53:e4:c1:45:8c:f8:3d:10:98:03:e1:a1:d1:73:3a:
                    11:16:e0:7e:61:ba:72:48:72:6e:0a:5d:94:75:da:
                    9f:2f:85:2a:9c:2a:e3:e2:70:24:0e:18:19:ab:d5:
                    96:03:be:d2:af:09:e8:68:3f:30:e2:12:41:87:91:
                    0c:e6:a9:64:70:7a:dc:ca:d5:c7:64:e5:45:bb:0b:
                    ee:fe:4e:6b:3f:56:a5:c5:9d:01:ee:ee:cb:af:89:
                    c6:9d:24:dc:d6:3f:9d:ed:a5:ce:0e:67:33:fb:b9:
                    27:1b:2f:3b:e5:66:35:08:93:c9:ee:d9:33:92:65:
                    aa:b0:e0:ca:ec:86:6e:b3:45:7f:df:28:33:bf:7f:
                    c4:2f:71:8b:c2:44:88:ec:e6:4e:e3:83:6a:fa:7a:
                    d3:60:f3:bd:83:6f:fa:76:f7:6c:c5:b2:7c:21:1d:
                    90:5a:c6:00:37:6e:7f:e3:6e:72:24:4b:ba:5f:c9:
                    df:9d:af:6d:db:1d:65:a5:3a:d2:bd:42:60:10:59:
                    95:a1:31
                Exponent: 65537 (0x10001)
        X509v3 extensions:
            X509v3 Basic Constraints: 
                CA:FALSE
            Netscape Comment: 
                OpenSSL Generated Certificate
            X509v3 Subject Key Identifier: 
                7D:86:FE:32:92:3F:2E:F8:A2:95:B5:A9:81:60:D0:2B:24:10:A8:34
            X509v3 Authority Key Identifier: 
                DirName:/C=CN/ST=ShangHai/L=ShangHaiCity/O=ZSB/OU=ZSB/CN=172.18.22.68/emailAddress=1355025575@qq.com
                serial:F8:27:51:9D:7B:6D:E6:DC

    Signature Algorithm: sha1WithRSAEncryption
         7d:9b:5c:33:5d:47:43:60:40:8d:b1:41:69:f9:43:6a:f0:cc:
         77:9b:9a:8d:97:c1:df:99:93:82:89:f5:50:52:53:94:10:5f:
         8e:b8:ca:b0:90:e5:c9:49:49:63:10:8a:af:09:d3:69:24:3f:
         9d:46:e8:a4:76:dc:85:3c:3d:77:03:4c:6d:96:7b:0b:44:51:
         9d:62:d0:6e:e9:2d:71:63:32:5c:c0:22:2a:c0:73:2a:21:8b:
         fb:5f:b8:6a:f7:a3:45:e6:eb:be:2f:5c:f9:a1:26:1b:dd:71:
         32:88:6c:1a:fc:94:fe:27:da:ba:09:65:ea:43:97:35:be:0a:
         69:0f:ed:8a:cb:8b:3f:29:9d:72:5a:fb:78:a0:4f:e6:f2:02:
         62:d2:ed:cf:38:a6:e7:86:57:cc:69:ce:fe:bf:34:37:60:55:
         27:b0:2b:c6:e0:07:80:cc:1b:66:c2:b3:9b:94:2b:94:ae:09:
         d7:e2:d2:64:79:0d:17:68:50:21:af:09:43:34:86:30:18:53:
         60:3b:4c:b1:ae:75:d0:a3:8a:ee:fd:84:fb:d7:ac:3e:a4:b3:
         df:93:5c:8c:3c:2e:51:b9:a3:fb:f7:82:ef:43:57:23:d0:e7:
         b1:64:f7:b7:7c:3a:16:6a:83:75:32:92:a8:fc:d9:dc:f6:93:
         6e:dd:6d:f9:08:75:a8:8e:a0:c8:a0:72:48:cf:34:b2:49:f5:
         c7:83:3c:f7:38:dd:25:61:bb:55:d0:16:38:83:16:58:fb:e0:
         0c:cd:9f:dd:55:3b:8c:e7:11:32:c2:d6:9d:fb:e2:ff:30:2d:
         36:33:ed:c4:4a:a3:3f:6b:cd:e8:ba:10:e5:85:7c:ab:3b:e3:
         89:9c:e8:9e:c6:87:50:ac:ff:e4:b5:f2:c9:e0:eb:39:08:d1:
         df:f3:85:f8:0e:ba:9c:89:cd:4c:0d:e2:5f:d6:8f:2c:b9:a9:
         d0:fc:a0:42:d9:a6:7a:09:99:7a:56:a3:7c:85:55:58:cd:08:
         b8:39:cd:2f:7e:b2:a5:6a:d3:3f:5b:1b:b3:16:ec:3d:02:96:
         26:5d:19:62:45:a0:32:72:0b:43:12:45:93:90:30:42:b4:e3:
         3b:77:08:8d:2c:13:af:af:54:e7:c8:40:10:66:ad:b2:af:9d:
         df:4f:69:89:c3:07:3c:c2:1a:b9:a2:a7:2e:e3:7a:c1:f6:ee:
         fc:61:81:55:bf:be:a2:11:a2:38:11:75:28:1a:63:55:85:f4:
         91:3b:5d:79:10:99:8e:63:fc:e5:4b:e5:16:a6:a5:4a:13:35:
         2a:2a:90:83:40:09:a8:e3:dd:e0:7b:67:2e:c7:0f:50:a8:9d:
         a3:41:dc:df:f8:fc:45:0f
-----BEGIN CERTIFICATE-----
MIIGiTCCBHGgAwIBAgIBATANBgkqhkiG9w0BAQUFADCBjDELMAkGA1UEBhMCQ04x
ETAPBgNVBAgMCFNoYW5nSGFpMRUwEwYDVQQHDAxTaGFuZ0hhaUNpdHkxDDAKBgNV
BAoMA1pTQjEMMAoGA1UECwwDWlNCMRUwEwYDVQQDDAwxNzIuMTguMjIuNjgxIDAe
BgkqhkiG9w0BCQEWETEzNTUwMjU1NzVAcXEuY29tMB4XDTE5MTIwNDAzMjAwN1oX
DTIwMTIwMzAzMjAwN1owdTELMAkGA1UEBhMCQ04xETAPBgNVBAgMCFNoYW5nSGFp
MQwwCgYDVQQKDANaU0IxDDAKBgNVBAsMA1pTQjEVMBMGA1UEAwwMMTcyLjE4LjIy
LjY4MSAwHgYJKoZIhvcNAQkBFhExMzU1MDI1NTc1QHFxLmNvbTCCAiIwDQYJKoZI
hvcNAQEBBQADggIPADCCAgoCggIBAKDHQqUhT4EaKo1Gkqs2urng+s49/OCLhZhG
4qvYyccAWwgWQyYOw/N0LcokQ8Wg9agssgJ6oHmVESGN8uDQMQQZq9q4tYBbPFZa
b36WDWDdmGeSucUuPRDNyNS/cE+m5CAx7CYcYN6mAYJYzM0Z8nd4NkeznsenX60t
yZTXOVz7NC7OzwX3QCx16+M6ONkJ1YbSSf8FyDJPHeulnfgrciaQzeBaXX2hZ/nO
1fdQbKcDW2Y5eoQQnn/W/hjeTPo6DodhJ33XaY7fo5DZmNlRHTCBYH70iuwKMGTv
mH+m34zIcCt6RwHXl2rfiCpSP6SqxQWrB75BI60PrzFeC9dV0tdB2NYuLzAdT7VY
7BBy6704RmyyPN1ARxJV/nZNR14gHyKK83sXdOszunlxce9bhjggEj3iIzHLv73D
U+TBRYz4PRCYA+Gh0XM6ERbgfmG6ckhybgpdlHXany+FKpwq4+JwJA4YGavVlgO+
0q8J6Gg/MOISQYeRDOapZHB63MrVx2TlRbsL7v5Oaz9WpcWdAe7uy6+Jxp0k3NY/
ne2lzg5nM/u5JxsvO+VmNQiTye7ZM5JlqrDgyuyGbrNFf98oM79/xC9xi8JEiOzm
TuODavp602DzvYNv+nb3bMWyfCEdkFrGADduf+NuciRLul/J352vbdsdZaU60r1C
YBBZlaExAgMBAAGjggEKMIIBBjAJBgNVHRMEAjAAMCwGCWCGSAGG+EIBDQQfFh1P
cGVuU1NMIEdlbmVyYXRlZCBDZXJ0aWZpY2F0ZTAdBgNVHQ4EFgQUfYb+MpI/Lvii
lbWpgWDQKyQQqDQwgasGA1UdIwSBozCBoKGBkqSBjzCBjDELMAkGA1UEBhMCQ04x
ETAPBgNVBAgMCFNoYW5nSGFpMRUwEwYDVQQHDAxTaGFuZ0hhaUNpdHkxDDAKBgNV
BAoMA1pTQjEMMAoGA1UECwwDWlNCMRUwEwYDVQQDDAwxNzIuMTguMjIuNjgxIDAe
BgkqhkiG9w0BCQEWETEzNTUwMjU1NzVAcXEuY29tggkA+CdRnXtt5twwDQYJKoZI
hvcNAQEFBQADggIBAH2bXDNdR0NgQI2xQWn5Q2rwzHebmo2Xwd+Zk4KJ9VBSU5QQ
X464yrCQ5clJSWMQiq8J02kkP51G6KR23IU8PXcDTG2WewtEUZ1i0G7pLXFjMlzA
IirAcyohi/tfuGr3o0Xm674vXPmhJhvdcTKIbBr8lP4n2roJZepDlzW+CmkP7YrL
iz8pnXJa+3igT+byAmLS7c84pueGV8xpzv6/NDdgVSewK8bgB4DMG2bCs5uUK5Su
Cdfi0mR5DRdoUCGvCUM0hjAYU2A7TLGuddCjiu79hPvXrD6ks9+TXIw8LlG5o/v3
gu9DVyPQ57Fk97d8OhZqg3Uykqj82dz2k27dbfkIdaiOoMigckjPNLJJ9ceDPPc4
3SVhu1XQFjiDFlj74AzNn91VO4znETLC1p374v8wLTYz7cRKoz9rzei6EOWFfKs7
44mc6J7Gh1Cs/+S18sng6zkI0d/zhfgOupyJzUwN4l/Wjyy5qdD8oELZpnoJmXpW
o3yFVVjNCLg5zS9+sqVq0z9bG7MW7D0CliZdGWJFoDJyC0MSRZOQMEK04zt3CI0s
E6+vVOfIQBBmrbKvnd9PaYnDBzzCGrmipy7jesH27vxhgVW/vqIRojgRdSgaY1WF
9JE7XXkQmY5j/OVL5RampUoTNSoqkINACajj3eB7Zy7HD1ConaNB3N/4/EUP
-----END CERTIFICATE-----
